; ModuleID = '52/4311.c'
source_filename = "52/4311.c"
target datalayout = "e-m:e-p270:32:32-p271:32:32-p272:64:64-i64:64-f80:128-n8:16:32:64-S128"
target triple = "x86_64-pc-linux-gnu"

@.str = private unnamed_addr constant [6 x i8] c"%d %d\00", align 1
@.str.1 = private unnamed_addr constant [3 x i8] c"%d\00", align 1
@.str.2 = private unnamed_addr constant [4 x i8] c" %d\00", align 1

; Function Attrs: noinline nounwind uwtable
define dso_local i32 @main() #0 {
  %1 = alloca i32, align 4
  %2 = alloca i32, align 4
  %3 = alloca i32, align 4
  %4 = alloca i32, align 4
  %5 = alloca [100 x i32], align 16
  store i32 0, i32* %1, align 4
  %6 = call i32 (i8*, ...) @__isoc99_scanf(i8* getelementptr inbounds ([6 x i8], [6 x i8]* @.str, i64 0, i64 0), i32* %2, i32* %4)
  store i32 1, i32* %3, align 4
  br label %7

7:                                                ; preds = %16, %0
  %8 = load i32, i32* %3, align 4
  %9 = load i32, i32* %2, align 4
  %10 = icmp sle i32 %8, %9
  br i1 %10, label %11, label %19

11:                                               ; preds = %7
  %12 = load i32, i32* %3, align 4
  %13 = sext i32 %12 to i64
  %14 = getelementptr inbounds [100 x i32], [100 x i32]* %5, i64 0, i64 %13
  %15 = call i32 (i8*, ...) @__isoc99_scanf(i8* getelementptr inbounds ([3 x i8], [3 x i8]* @.str.1, i64 0, i64 0), i32* %14)
  br label %16

16:                                               ; preds = %11
  %17 = load i32, i32* %3, align 4
  %18 = add nsw i32 %17, 1
  store i32 %18, i32* %3, align 4
  br label %7

19:                                               ; preds = %7
  %20 = getelementptr inbounds [100 x i32], [100 x i32]* %5, i64 0, i64 0
  %21 = load i32, i32* %2, align 4
  %22 = load i32, i32* %4, align 4
  call void @move(i32* %20, i32 %21, i32 %22)
  %23 = getelementptr inbounds [100 x i32], [100 x i32]* %5, i64 0, i64 0
  %24 = getelementptr inbounds i32, i32* %23, i64 1
  %25 = load i32, i32* %24, align 4
  %26 = call i32 (i8*, ...) @printf(i8* getelementptr inbounds ([3 x i8], [3 x i8]* @.str.1, i64 0, i64 0), i32 %25)
  store i32 2, i32* %3, align 4
  br label %27

27:                                               ; preds = %38, %19
  %28 = load i32, i32* %3, align 4
  %29 = load i32, i32* %2, align 4
  %30 = icmp sle i32 %28, %29
  br i1 %30, label %31, label %41

31:                                               ; preds = %27
  %32 = getelementptr inbounds [100 x i32], [100 x i32]* %5, i64 0, i64 0
  %33 = load i32, i32* %3, align 4
  %34 = sext i32 %33 to i64
  %35 = getelementptr inbounds i32, i32* %32, i64 %34
  %36 = load i32, i32* %35, align 4
  %37 = call i32 (i8*, ...) @printf(i8* getelementptr inbounds ([4 x i8], [4 x i8]* @.str.2, i64 0, i64 0), i32 %36)
  br label %38

38:                                               ; preds = %31
  %39 = load i32, i32* %3, align 4
  %40 = add nsw i32 %39, 1
  store i32 %40, i32* %3, align 4
  br label %27

41:                                               ; preds = %27
  %42 = load i32, i32* %1, align 4
  ret i32 %42
}

declare dso_local i32 @__isoc99_scanf(i8*, ...) #1

; Function Attrs: noinline nounwind uwtable
define dso_local void @move(i32* %0, i32 %1, i32 %2) #0 {
  %4 = alloca i32*, align 8
  %5 = alloca i32, align 4
  %6 = alloca i32, align 4
  %7 = alloca [100 x i32], align 16
  %8 = alloca i32, align 4
  store i32* %0, i32** %4, align 8
  store i32 %1, i32* %5, align 4
  store i32 %2, i32* %6, align 4
  store i32 1, i32* %8, align 4
  br label %9

9:                                                ; preds = %26, %3
  %10 = load i32, i32* %8, align 4
  %11 = load i32, i32* %5, align 4
  %12 = load i32, i32* %6, align 4
  %13 = sub nsw i32 %11, %12
  %14 = icmp sle i32 %10, %13
  br i1 %14, label %15, label %29

15:                                               ; preds = %9
  %16 = load i32*, i32** %4, align 8
  %17 = load i32, i32* %8, align 4
  %18 = sext i32 %17 to i64
  %19 = getelementptr inbounds i32, i32* %16, i64 %18
  %20 = load i32, i32* %19, align 4
  %21 = load i32, i32* %8, align 4
  %22 = load i32, i32* %6, align 4
  %23 = add nsw i32 %21, %22
  %24 = sext i32 %23 to i64
  %25 = getelementptr inbounds [100 x i32], [100 x i32]* %7, i64 0, i64 %24
  store i32 %20, i32* %25, align 4
  br label %26

26:                                               ; preds = %15
  %27 = load i32, i32* %8, align 4
  %28 = add nsw i32 %27, 1
  store i32 %28, i32* %8, align 4
  br label %9

29:                                               ; preds = %9
  %30 = load i32, i32* %5, align 4
  %31 = load i32, i32* %6, align 4
  %32 = sub nsw i32 %30, %31
  %33 = add nsw i32 %32, 1
  store i32 %33, i32* %8, align 4
  br label %34

34:                                               ; preds = %51, %29
  %35 = load i32, i32* %8, align 4
  %36 = load i32, i32* %5, align 4
  %37 = icmp sle i32 %35, %36
  br i1 %37, label %38, label %54

38:                                               ; preds = %34
  %39 = load i32*, i32** %4, align 8
  %40 = load i32, i32* %8, align 4
  %41 = sext i32 %40 to i64
  %42 = getelementptr inbounds i32, i32* %39, i64 %41
  %43 = load i32, i32* %42, align 4
  %44 = load i32, i32* %8, align 4
  %45 = load i32, i32* %6, align 4
  %46 = add nsw i32 %44, %45
  %47 = load i32, i32* %5, align 4
  %48 = sub nsw i32 %46, %47
  %49 = sext i32 %48 to i64
  %50 = getelementptr inbounds [100 x i32], [100 x i32]* %7, i64 0, i64 %49
  store i32 %43, i32* %50, align 4
  br label %51

51:                                               ; preds = %38
  %52 = load i32, i32* %8, align 4
  %53 = add nsw i32 %52, 1
  store i32 %53, i32* %8, align 4
  br label %34

54:                                               ; preds = %34
  store i32 1, i32* %8, align 4
  br label %55

55:                                               ; preds = %69, %54
  %56 = load i32, i32* %8, align 4
  %57 = load i32, i32* %5, align 4
  %58 = icmp sle i32 %56, %57
  br i1 %58, label %59, label %72

59:                                               ; preds = %55
  %60 = getelementptr inbounds [100 x i32], [100 x i32]* %7, i64 0, i64 0
  %61 = load i32, i32* %8, align 4
  %62 = sext i32 %61 to i64
  %63 = getelementptr inbounds i32, i32* %60, i64 %62
  %64 = load i32, i32* %63, align 4
  %65 = load i32*, i32** %4, align 8
  %66 = load i32, i32* %8, align 4
  %67 = sext i32 %66 to i64
  %68 = getelementptr inbounds i32, i32* %65, i64 %67
  store i32 %64, i32* %68, align 4
  br label %69

69:                                               ; preds = %59
  %70 = load i32, i32* %8, align 4
  %71 = add nsw i32 %70, 1
  store i32 %71, i32* %8, align 4
  br label %55

72:                                               ; preds = %55
  ret void
}

declare dso_local i32 @printf(i8*, ...) #1


!llvm.module.flags = !{!0}
!llvm.ident = !{!1}

!0 = !{i32 1, !"wchar_size", i32 4}
!1 = !{!"clang version 10.0.0-4ubuntu1 "}
